; Function Attrs: mustprogress nofree norecurse nosync nounwind willreturn memory(none) uwtable
define noundef i32 @_ZN5ZXing6Pdf41715CodewordDecoder11GetCodewordEi(i32 noundef %0) local_unnamed_addr #1 align 2 {
  %2 = and i32 %0, -65536
  %.not = icmp eq i32 %2, 65536
  br i1 %.not, label %3, label %27

3:                                                ; preds = %1
  %4 = and i32 %0, 65535
  br label %_ZSt7advanceIPKtlEvRT_T0_.exit.i.i

_ZSt7advanceIPKtlEvRT_T0_.exit.i.i:               ; preds = %_ZSt7advanceIPKtlEvRT_T0_.exit.i.i, %3
  %.017.i.i = phi ptr [ @_ZN5ZXing6Pdf417L12SYMBOL_TABLEE, %3 ], [ %.1.i.i, %_ZSt7advanceIPKtlEvRT_T0_.exit.i.i ]
  %.01116.i.i = phi i64 [ 2787, %3 ], [ %.112.i.i, %_ZSt7advanceIPKtlEvRT_T0_.exit.i.i ]
  %5 = lshr i64 %.01116.i.i, 1
  %6 = getelementptr inbounds i16, ptr %.017.i.i, i64 %5
  %7 = load i16, ptr %6, align 2
  %8 = zext i16 %7 to i32
  %9 = icmp ugt i32 %4, %8
  %10 = getelementptr inbounds i8, ptr %6, i64 2
  %11 = xor i64 %5, -1
  %12 = add nsw i64 %.01116.i.i, %11
  %.112.i.i = select i1 %9, i64 %12, i64 %5
  %.1.i.i = select i1 %9, ptr %10, ptr %.017.i.i
  %13 = icmp sgt i64 %.112.i.i, 0
  br i1 %13, label %_ZSt7advanceIPKtlEvRT_T0_.exit.i.i, label %_ZSt11lower_boundIPKtiET_S2_S2_RKT0_.exit, !llvm.loop !12

_ZSt11lower_boundIPKtiET_S2_S2_RKT0_.exit:        ; preds = %_ZSt7advanceIPKtlEvRT_T0_.exit.i.i
  %.not4 = icmp eq ptr %.1.i.i, getelementptr inbounds (%"struct.std::array.0", ptr @_ZN5ZXing6Pdf417L12SYMBOL_TABLEE, i64 1, i32 0, i64 0)
  br i1 %.not4, label %27, label %14

14:                                               ; preds = %_ZSt11lower_boundIPKtiET_S2_S2_RKT0_.exit
  %15 = load i16, ptr %.1.i.i, align 2
  %16 = trunc i32 %0 to i16
  %17 = icmp eq i16 %15, %16
  br i1 %17, label %18, label %27

18:                                               ; preds = %14
  %19 = ptrtoint ptr %.1.i.i to i64
  %20 = sub i64 %19, ptrtoint (ptr @_ZN5ZXing6Pdf417L12SYMBOL_TABLEE to i64)
  %21 = ashr exact i64 %20, 1
  %22 = getelementptr inbounds [2787 x i16], ptr @_ZN5ZXing6Pdf417L14CODEWORD_TABLEE, i64 0, i64 %21
  %23 = load i16, ptr %22, align 2
  %24 = zext i16 %23 to i32
  %25 = add nsw i32 %24, -1
  %26 = srem i32 %25, 929
  br label %27

27:                                               ; preds = %_ZSt11lower_boundIPKtiET_S2_S2_RKT0_.exit, %14, %1, %18
  %.0 = phi i32 [ %26, %18 ], [ -1, %1 ], [ -1, %14 ], [ -1, %_ZSt11lower_boundIPKtiET_S2_S2_RKT0_.exit ]
  ret i32 %.0
}